; ModuleID = '57/600.c'
source_filename = "57/600.c"
target datalayout = "e-m:e-p270:32:32-p271:32:32-p272:64:64-i64:64-f80:128-n8:16:32:64-S128"
target triple = "x86_64-pc-linux-gnu"

@.str = private unnamed_addr constant [3 x i8] c"%d\00", align 1
@.str.1 = private unnamed_addr constant [3 x i8] c"%c\00", align 1
@.str.2 = private unnamed_addr constant [4 x i8] c"%c\0A\00", align 1

; Function Attrs: noinline nounwind uwtable
define dso_local i32 @main() #0 {
  %1 = alloca i32, align 4
  %2 = alloca [35 x i8], align 16
  %3 = alloca [35 x i8], align 16
  %4 = alloca i32, align 4
  %5 = alloca i32, align 4
  %6 = alloca i32, align 4
  store i32 0, i32* %1, align 4
  %7 = call i32 (i8*, ...) @__isoc99_scanf(i8* getelementptr inbounds ([3 x i8], [3 x i8]* @.str, i64 0, i64 0), i32* %4)
  %8 = getelementptr inbounds [35 x i8], [35 x i8]* %2, i64 0, i64 0
  %9 = call i32 (i8*, ...) bitcast (i32 (...)* @gets to i32 (i8*, ...)*)(i8* %8)
  br label %10

10:                                               ; preds = %156, %0
  %11 = load i32, i32* %4, align 4
  %12 = add nsw i32 %11, -1
  store i32 %12, i32* %4, align 4
  %13 = icmp ne i32 %11, 0
  br i1 %13, label %14, label %157

14:                                               ; preds = %10
  %15 = getelementptr inbounds [35 x i8], [35 x i8]* %2, i64 0, i64 0
  %16 = call i32 (i8*, ...) bitcast (i32 (...)* @gets to i32 (i8*, ...)*)(i8* %15)
  %17 = getelementptr inbounds [35 x i8], [35 x i8]* %2, i64 0, i64 0
  %18 = call i64 @strlen(i8* %17) #3
  %19 = trunc i64 %18 to i32
  store i32 %19, i32* %6, align 4
  %20 = load i32, i32* %6, align 4
  %21 = sub nsw i32 %20, 1
  %22 = sext i32 %21 to i64
  %23 = getelementptr inbounds [35 x i8], [35 x i8]* %2, i64 0, i64 %22
  %24 = load i8, i8* %23, align 1
  %25 = sext i8 %24 to i32
  %26 = icmp eq i32 %25, 114
  br i1 %26, label %27, label %64

27:                                               ; preds = %14
  store i32 0, i32* %5, align 4
  br label %28

28:                                               ; preds = %60, %27
  %29 = load i32, i32* %5, align 4
  %30 = load i32, i32* %6, align 4
  %31 = sub nsw i32 %30, 2
  %32 = icmp slt i32 %29, %31
  br i1 %32, label %33, label %63

33:                                               ; preds = %28
  %34 = load i32, i32* %5, align 4
  %35 = sext i32 %34 to i64
  %36 = getelementptr inbounds [35 x i8], [35 x i8]* %2, i64 0, i64 %35
  %37 = load i8, i8* %36, align 1
  %38 = load i32, i32* %5, align 4
  %39 = sext i32 %38 to i64
  %40 = getelementptr inbounds [35 x i8], [35 x i8]* %3, i64 0, i64 %39
  store i8 %37, i8* %40, align 1
  %41 = load i32, i32* %5, align 4
  %42 = load i32, i32* %6, align 4
  %43 = sub nsw i32 %42, 3
  %44 = icmp slt i32 %41, %43
  br i1 %44, label %45, label %52

45:                                               ; preds = %33
  %46 = load i32, i32* %5, align 4
  %47 = sext i32 %46 to i64
  %48 = getelementptr inbounds [35 x i8], [35 x i8]* %3, i64 0, i64 %47
  %49 = load i8, i8* %48, align 1
  %50 = sext i8 %49 to i32
  %51 = call i32 (i8*, ...) @printf(i8* getelementptr inbounds ([3 x i8], [3 x i8]* @.str.1, i64 0, i64 0), i32 %50)
  br label %59

52:                                               ; preds = %33
  %53 = load i32, i32* %5, align 4
  %54 = sext i32 %53 to i64
  %55 = getelementptr inbounds [35 x i8], [35 x i8]* %3, i64 0, i64 %54
  %56 = load i8, i8* %55, align 1
  %57 = sext i8 %56 to i32
  %58 = call i32 (i8*, ...) @printf(i8* getelementptr inbounds ([4 x i8], [4 x i8]* @.str.2, i64 0, i64 0), i32 %57)
  br label %59

59:                                               ; preds = %52, %45
  br label %60

60:                                               ; preds = %59
  %61 = load i32, i32* %5, align 4
  %62 = add nsw i32 %61, 1
  store i32 %62, i32* %5, align 4
  br label %28

63:                                               ; preds = %28
  br label %156

64:                                               ; preds = %14
  %65 = load i32, i32* %6, align 4
  %66 = sub nsw i32 %65, 1
  %67 = sext i32 %66 to i64
  %68 = getelementptr inbounds [35 x i8], [35 x i8]* %2, i64 0, i64 %67
  %69 = load i8, i8* %68, align 1
  %70 = sext i8 %69 to i32
  %71 = icmp eq i32 %70, 121
  br i1 %71, label %72, label %109

72:                                               ; preds = %64
  store i32 0, i32* %5, align 4
  br label %73

73:                                               ; preds = %105, %72
  %74 = load i32, i32* %5, align 4
  %75 = load i32, i32* %6, align 4
  %76 = sub nsw i32 %75, 2
  %77 = icmp slt i32 %74, %76
  br i1 %77, label %78, label %108

78:                                               ; preds = %73
  %79 = load i32, i32* %5, align 4
  %80 = sext i32 %79 to i64
  %81 = getelementptr inbounds [35 x i8], [35 x i8]* %2, i64 0, i64 %80
  %82 = load i8, i8* %81, align 1
  %83 = load i32, i32* %5, align 4
  %84 = sext i32 %83 to i64
  %85 = getelementptr inbounds [35 x i8], [35 x i8]* %3, i64 0, i64 %84
  store i8 %82, i8* %85, align 1
  %86 = load i32, i32* %5, align 4
  %87 = load i32, i32* %6, align 4
  %88 = sub nsw i32 %87, 3
  %89 = icmp slt i32 %86, %88
  br i1 %89, label %90, label %97

90:                                               ; preds = %78
  %91 = load i32, i32* %5, align 4
  %92 = sext i32 %91 to i64
  %93 = getelementptr inbounds [35 x i8], [35 x i8]* %3, i64 0, i64 %92
  %94 = load i8, i8* %93, align 1
  %95 = sext i8 %94 to i32
  %96 = call i32 (i8*, ...) @printf(i8* getelementptr inbounds ([3 x i8], [3 x i8]* @.str.1, i64 0, i64 0), i32 %95)
  br label %104

97:                                               ; preds = %78
  %98 = load i32, i32* %5, align 4
  %99 = sext i32 %98 to i64
  %100 = getelementptr inbounds [35 x i8], [35 x i8]* %3, i64 0, i64 %99
  %101 = load i8, i8* %100, align 1
  %102 = sext i8 %101 to i32
  %103 = call i32 (i8*, ...) @printf(i8* getelementptr inbounds ([4 x i8], [4 x i8]* @.str.2, i64 0, i64 0), i32 %102)
  br label %104

104:                                              ; preds = %97, %90
  br label %105

105:                                              ; preds = %104
  %106 = load i32, i32* %5, align 4
  %107 = add nsw i32 %106, 1
  store i32 %107, i32* %5, align 4
  br label %73

108:                                              ; preds = %73
  br label %155

109:                                              ; preds = %64
  %110 = load i32, i32* %6, align 4
  %111 = sub nsw i32 %110, 1
  %112 = sext i32 %111 to i64
  %113 = getelementptr inbounds [35 x i8], [35 x i8]* %2, i64 0, i64 %112
  %114 = load i8, i8* %113, align 1
  %115 = sext i8 %114 to i32
  %116 = icmp eq i32 %115, 103
  br i1 %116, label %117, label %154

117:                                              ; preds = %109
  store i32 0, i32* %5, align 4
  br label %118

118:                                              ; preds = %150, %117
  %119 = load i32, i32* %5, align 4
  %120 = load i32, i32* %6, align 4
  %121 = sub nsw i32 %120, 3
  %122 = icmp slt i32 %119, %121
  br i1 %122, label %123, label %153

123:                                              ; preds = %118
  %124 = load i32, i32* %5, align 4
  %125 = sext i32 %124 to i64
  %126 = getelementptr inbounds [35 x i8], [35 x i8]* %2, i64 0, i64 %125
  %127 = load i8, i8* %126, align 1
  %128 = load i32, i32* %5, align 4
  %129 = sext i32 %128 to i64
  %130 = getelementptr inbounds [35 x i8], [35 x i8]* %3, i64 0, i64 %129
  store i8 %127, i8* %130, align 1
  %131 = load i32, i32* %5, align 4
  %132 = load i32, i32* %6, align 4
  %133 = sub nsw i32 %132, 4
  %134 = icmp slt i32 %131, %133
  br i1 %134, label %135, label %142

135:                                              ; preds = %123
  %136 = load i32, i32* %5, align 4
  %137 = sext i32 %136 to i64
  %138 = getelementptr inbounds [35 x i8], [35 x i8]* %3, i64 0, i64 %137
  %139 = load i8, i8* %138, align 1
  %140 = sext i8 %139 to i32
  %141 = call i32 (i8*, ...) @printf(i8* getelementptr inbounds ([3 x i8], [3 x i8]* @.str.1, i64 0, i64 0), i32 %140)
  br label %149

142:                                              ; preds = %123
  %143 = load i32, i32* %5, align 4
  %144 = sext i32 %143 to i64
  %145 = getelementptr inbounds [35 x i8], [35 x i8]* %3, i64 0, i64 %144
  %146 = load i8, i8* %145, align 1
  %147 = sext i8 %146 to i32
  %148 = call i32 (i8*, ...) @printf(i8* getelementptr inbounds ([4 x i8], [4 x i8]* @.str.2, i64 0, i64 0), i32 %147)
  br label %149

149:                                              ; preds = %142, %135
  br label %150

150:                                              ; preds = %149
  %151 = load i32, i32* %5, align 4
  %152 = add nsw i32 %151, 1
  store i32 %152, i32* %5, align 4
  br label %118

153:                                              ; preds = %118
  br label %154

154:                                              ; preds = %153, %109
  br label %155

155:                                              ; preds = %154, %108
  br label %156

156:                                              ; preds = %155, %63
  br label %10

157:                                              ; preds = %10
  ret i32 0
}

declare dso_local i32 @__isoc99_scanf(i8*, ...) #1

declare dso_local i32 @gets(...) #1

; Function Attrs: nounwind readonly
declare dso_local i64 @strlen(i8*) #2

declare dso_local i32 @printf(i8*, ...) #1


!llvm.module.flags = !{!0}
!llvm.ident = !{!1}

!0 = !{i32 1, !"wchar_size", i32 4}
!1 = !{!"clang version 10.0.0-4ubuntu1 "}
